; ModuleID = 'source-C-CXX/22/89.c'
source_filename = "source-C-CXX/22/89.c"
target datalayout = "e-m:e-p270:32:32-p271:32:32-p272:64:64-i64:64-f80:128-n8:16:32:64-S128"
target triple = "x86_64-pc-linux-gnu"

@.str = private unnamed_addr constant [4 x i8] c"%s \00", align 1
@.str.1 = private unnamed_addr constant [3 x i8] c"%s\00", align 1

; Function Attrs: nofree nounwind sspstrong uwtable
define dso_local void @bo(i8* nocapture readonly %0) local_unnamed_addr #0 {
  %2 = alloca [100 x [100 x i8]], align 16
  %3 = getelementptr inbounds [100 x [100 x i8]], [100 x [100 x i8]]* %2, i64 0, i64 0, i64 0
  %4 = getelementptr inbounds [100 x [100 x i8]], [100 x [100 x i8]]* %2, i64 0, i64 0, i64 0
  call void @llvm.lifetime.start.p0i8(i64 10000, i8* nonnull %4) #6
  call void @llvm.memset.p0i8.i64(i8* noundef nonnull align 16 dereferenceable(10000) %3, i8 0, i64 10000, i1 false)
  br label %5

5:                                                ; preds = %1, %24
  %6 = phi i64 [ 0, %1 ], [ %27, %24 ]
  %7 = phi i32 [ 0, %1 ], [ %25, %24 ]
  %8 = phi i32 [ 0, %1 ], [ %26, %24 ]
  %9 = getelementptr inbounds i8, i8* %0, i64 %6
  %10 = load i8, i8* %9, align 1, !tbaa !5
  switch i8 %10, label %11 [
    i8 0, label %28
    i8 32, label %16
  ]

11:                                               ; preds = %5
  %12 = sext i32 %7 to i64
  %13 = sext i32 %8 to i64
  %14 = getelementptr inbounds [100 x [100 x i8]], [100 x [100 x i8]]* %2, i64 0, i64 %12, i64 %13
  store i8 %10, i8* %14, align 1, !tbaa !5
  %15 = add nsw i32 %8, 1
  br label %24

16:                                               ; preds = %5
  %17 = icmp eq i32 %7, 0
  br i1 %17, label %22, label %18

18:                                               ; preds = %16
  %19 = sext i32 %7 to i64
  %20 = sext i32 %8 to i64
  %21 = getelementptr inbounds [100 x [100 x i8]], [100 x [100 x i8]]* %2, i64 0, i64 %19, i64 %20
  store i8 32, i8* %21, align 1, !tbaa !5
  br label %22

22:                                               ; preds = %18, %16
  %23 = add nsw i32 %7, 1
  br label %24

24:                                               ; preds = %11, %22
  %25 = phi i32 [ %23, %22 ], [ %7, %11 ]
  %26 = phi i32 [ 0, %22 ], [ %15, %11 ]
  %27 = add nuw i64 %6, 1
  br label %5, !llvm.loop !8

28:                                               ; preds = %5
  %29 = icmp eq i32 %7, 0
  br i1 %29, label %46, label %30

30:                                               ; preds = %28
  %31 = sext i32 %7 to i64
  %32 = getelementptr inbounds [100 x [100 x i8]], [100 x [100 x i8]]* %2, i64 0, i64 %31, i64 0
  %33 = call i32 (i8*, ...) @printf(i8* nonnull dereferenceable(1) getelementptr inbounds ([4 x i8], [4 x i8]* @.str, i64 0, i64 0), i8* nonnull %32)
  %34 = icmp sgt i32 %7, 0
  br i1 %34, label %35, label %48

35:                                               ; preds = %30
  %36 = zext i32 %7 to i64
  br label %37

37:                                               ; preds = %35, %37
  %38 = phi i64 [ %36, %35 ], [ %45, %37 ]
  %39 = phi i32 [ %7, %35 ], [ %40, %37 ]
  %40 = add nsw i32 %39, -1
  %41 = zext i32 %40 to i64
  %42 = getelementptr inbounds [100 x [100 x i8]], [100 x [100 x i8]]* %2, i64 0, i64 %41, i64 0
  %43 = call i32 (i8*, ...) @printf(i8* nonnull dereferenceable(1) getelementptr inbounds ([3 x i8], [3 x i8]* @.str.1, i64 0, i64 0), i8* nonnull %42)
  %44 = icmp sgt i64 %38, 1
  %45 = add nsw i64 %38, -1
  br i1 %44, label %37, label %48, !llvm.loop !10

46:                                               ; preds = %28
  %47 = tail call i32 @puts(i8* nonnull dereferenceable(1) %0)
  br label %48

48:                                               ; preds = %37, %30, %46
  call void @llvm.lifetime.end.p0i8(i64 10000, i8* nonnull %4) #6
  ret void
}

; Function Attrs: argmemonly mustprogress nofree nosync nounwind willreturn
declare void @llvm.lifetime.start.p0i8(i64 immarg, i8* nocapture) #1

; Function Attrs: nofree nounwind
declare noundef i32 @printf(i8* nocapture noundef readonly, ...) local_unnamed_addr #2

; Function Attrs: nofree nounwind
declare noundef i32 @puts(i8* nocapture noundef readonly) local_unnamed_addr #2

; Function Attrs: argmemonly mustprogress nofree nosync nounwind willreturn
declare void @llvm.lifetime.end.p0i8(i64 immarg, i8* nocapture) #1

; Function Attrs: nounwind sspstrong uwtable
define dso_local i32 @main() local_unnamed_addr #3 {
  %1 = alloca [100 x [100 x i8]], align 16
  %2 = alloca [100 x i8], align 16
  %3 = getelementptr inbounds [100 x i8], [100 x i8]* %2, i64 0, i64 0
  call void @llvm.lifetime.start.p0i8(i64 100, i8* nonnull %3) #6
  %4 = call i32 (i8*, ...) bitcast (i32 (...)* @gets to i32 (i8*, ...)*)(i8* nonnull %3) #6
  %5 = getelementptr inbounds [100 x [100 x i8]], [100 x [100 x i8]]* %1, i64 0, i64 0, i64 0
  call void @llvm.lifetime.start.p0i8(i64 10000, i8* nonnull %5) #6
  call void @llvm.memset.p0i8.i64(i8* noundef nonnull align 16 dereferenceable(10000) %5, i8 0, i64 10000, i1 false) #6
  br label %6

6:                                                ; preds = %25, %0
  %7 = phi i64 [ 0, %0 ], [ %28, %25 ]
  %8 = phi i32 [ 0, %0 ], [ %26, %25 ]
  %9 = phi i32 [ 0, %0 ], [ %27, %25 ]
  %10 = getelementptr inbounds [100 x i8], [100 x i8]* %2, i64 0, i64 %7
  %11 = load i8, i8* %10, align 1, !tbaa !5
  switch i8 %11, label %12 [
    i8 0, label %29
    i8 32, label %17
  ]

12:                                               ; preds = %6
  %13 = sext i32 %8 to i64
  %14 = sext i32 %9 to i64
  %15 = getelementptr inbounds [100 x [100 x i8]], [100 x [100 x i8]]* %1, i64 0, i64 %13, i64 %14
  store i8 %11, i8* %15, align 1, !tbaa !5
  %16 = add nsw i32 %9, 1
  br label %25

17:                                               ; preds = %6
  %18 = icmp eq i32 %8, 0
  br i1 %18, label %23, label %19

19:                                               ; preds = %17
  %20 = sext i32 %8 to i64
  %21 = sext i32 %9 to i64
  %22 = getelementptr inbounds [100 x [100 x i8]], [100 x [100 x i8]]* %1, i64 0, i64 %20, i64 %21
  store i8 32, i8* %22, align 1, !tbaa !5
  br label %23

23:                                               ; preds = %19, %17
  %24 = add nsw i32 %8, 1
  br label %25

25:                                               ; preds = %23, %12
  %26 = phi i32 [ %24, %23 ], [ %8, %12 ]
  %27 = phi i32 [ 0, %23 ], [ %16, %12 ]
  %28 = add nuw i64 %7, 1
  br label %6, !llvm.loop !8

29:                                               ; preds = %6
  %30 = icmp eq i32 %8, 0
  br i1 %30, label %47, label %31

31:                                               ; preds = %29
  %32 = sext i32 %8 to i64
  %33 = getelementptr inbounds [100 x [100 x i8]], [100 x [100 x i8]]* %1, i64 0, i64 %32, i64 0
  %34 = call i32 (i8*, ...) @printf(i8* nonnull dereferenceable(1) getelementptr inbounds ([4 x i8], [4 x i8]* @.str, i64 0, i64 0), i8* nonnull %33) #6
  %35 = icmp sgt i32 %8, 0
  br i1 %35, label %36, label %49

36:                                               ; preds = %31
  %37 = zext i32 %8 to i64
  br label %38

38:                                               ; preds = %38, %36
  %39 = phi i64 [ %37, %36 ], [ %46, %38 ]
  %40 = phi i32 [ %8, %36 ], [ %41, %38 ]
  %41 = add nsw i32 %40, -1
  %42 = zext i32 %41 to i64
  %43 = getelementptr inbounds [100 x [100 x i8]], [100 x [100 x i8]]* %1, i64 0, i64 %42, i64 0
  %44 = call i32 (i8*, ...) @printf(i8* nonnull dereferenceable(1) getelementptr inbounds ([3 x i8], [3 x i8]* @.str.1, i64 0, i64 0), i8* nonnull %43) #6
  %45 = icmp sgt i64 %39, 1
  %46 = add nsw i64 %39, -1
  br i1 %45, label %38, label %49, !llvm.loop !10

47:                                               ; preds = %29
  %48 = call i32 @puts(i8* nonnull dereferenceable(1) %3) #6
  br label %49

49:                                               ; preds = %38, %31, %47
  call void @llvm.lifetime.end.p0i8(i64 10000, i8* nonnull %5) #6
  call void @llvm.lifetime.end.p0i8(i64 100, i8* nonnull %3) #6
  ret i32 0
}

declare i32 @gets(...) local_unnamed_addr #4

; Function Attrs: argmemonly nofree nounwind willreturn writeonly
declare void @llvm.memset.p0i8.i64(i8* nocapture writeonly, i8, i64, i1 immarg) #5


!llvm.module.flags = !{!0, !1, !2, !3}
!llvm.ident = !{!4}

!0 = !{i32 1, !"wchar_size", i32 4}
!1 = !{i32 7, !"PIC Level", i32 2}
!2 = !{i32 7, !"PIE Level", i32 2}
!3 = !{i32 7, !"uwtable", i32 1}
!4 = !{!"clang version 13.0.0"}
!5 = !{!6, !6, i64 0}
!6 = !{!"omnipotent char", !7, i64 0}
!7 = !{!"Simple C/C++ TBAA"}
!8 = distinct !{!8, !9}
!9 = !{!"llvm.loop.mustprogress"}
!10 = distinct !{!10, !9}
